target datalayout = "e-m:e-p270:32:32-p271:32:32-p272:64:64-i64:64-i128:128-f80:128-n8:16:32:64-S128"
target triple = "x86_64-pc-linux-gnu"

%struct.PaUtilRingBuffer = type { i64, i64, i64, i64, i64, i64, ptr }

; Function Attrs: nounwind uwtable
define void @PaUtil_FlushRingBuffer(ptr noundef %0) #0 {
  %2 = alloca ptr, align 8
  store ptr %0, ptr %2, align 8, !tbaa !3
  %3 = load ptr, ptr %2, align 8, !tbaa !3
  %4 = getelementptr inbounds nuw %struct.PaUtilRingBuffer, ptr %3, i32 0, i32 2
  store volatile i64 0, ptr %4, align 8, !tbaa !18
  %5 = load ptr, ptr %2, align 8, !tbaa !3
  %6 = getelementptr inbounds nuw %struct.PaUtilRingBuffer, ptr %5, i32 0, i32 1
  store volatile i64 0, ptr %6, align 8, !tbaa !19
  ret void
}

; Function Attrs: nounwind uwtable
define i64 @PaUtil_InitializeRingBuffer(ptr noundef %0, i64 noundef %1, i64 noundef %2, ptr noundef %3) #0 {
  %5 = alloca i64, align 8
  %6 = alloca ptr, align 8
  %7 = alloca i64, align 8
  %8 = alloca i64, align 8
  %9 = alloca ptr, align 8
  store ptr %0, ptr %6, align 8, !tbaa !3
  store i64 %1, ptr %7, align 8, !tbaa !8
  store i64 %2, ptr %8, align 8, !tbaa !8
  store ptr %3, ptr %9, align 8, !tbaa !10
  %10 = load i64, ptr %8, align 8, !tbaa !8
  %11 = sub nsw i64 %10, 1
  %12 = load i64, ptr %8, align 8, !tbaa !8
  %13 = and i64 %11, %12
  %14 = icmp ne i64 %13, 0
  br i1 %14, label %15, label %16

15:                                               ; preds = %4
  store i64 -1, ptr %5, align 8
  br label %36

16:                                               ; preds = %4
  %17 = load i64, ptr %8, align 8, !tbaa !8
  %18 = load ptr, ptr %6, align 8, !tbaa !3
  %19 = getelementptr inbounds nuw %struct.PaUtilRingBuffer, ptr %18, i32 0, i32 0
  store i64 %17, ptr %19, align 8, !tbaa !11
  %20 = load ptr, ptr %9, align 8, !tbaa !10
  %21 = load ptr, ptr %6, align 8, !tbaa !3
  %22 = getelementptr inbounds nuw %struct.PaUtilRingBuffer, ptr %21, i32 0, i32 6
  store ptr %20, ptr %22, align 8, !tbaa !14
  %23 = load ptr, ptr %6, align 8, !tbaa !3
  call void @PaUtil_FlushRingBuffer(ptr noundef %23)
  %24 = load i64, ptr %8, align 8, !tbaa !8
  %25 = mul nsw i64 %24, 2
  %26 = sub nsw i64 %25, 1
  %27 = load ptr, ptr %6, align 8, !tbaa !3
  %28 = getelementptr inbounds nuw %struct.PaUtilRingBuffer, ptr %27, i32 0, i32 3
  store i64 %26, ptr %28, align 8, !tbaa !15
  %29 = load i64, ptr %8, align 8, !tbaa !8
  %30 = sub nsw i64 %29, 1
  %31 = load ptr, ptr %6, align 8, !tbaa !3
  %32 = getelementptr inbounds nuw %struct.PaUtilRingBuffer, ptr %31, i32 0, i32 4
  store i64 %30, ptr %32, align 8, !tbaa !16
  %33 = load i64, ptr %7, align 8, !tbaa !8
  %34 = load ptr, ptr %6, align 8, !tbaa !3
  %35 = getelementptr inbounds nuw %struct.PaUtilRingBuffer, ptr %34, i32 0, i32 5
  store i64 %33, ptr %35, align 8, !tbaa !17
  store i64 0, ptr %5, align 8
  br label %36

36:                                               ; preds = %16, %15
  %37 = load i64, ptr %5, align 8
  ret i64 %37
}