; Function Attrs: nofree norecurse nounwind memory(argmem: readwrite, inaccessiblemem: readwrite) uwtable
define range(i64 -1, 1) i64 @PaUtil_InitializeRingBuffer(ptr noundef %0, i64 noundef %1, i64 noundef %2, ptr noundef %3) local_unnamed_addr #0 {
  %5 = tail call range(i64 0, 65) i64 @llvm.ctpop.i64(i64 %2)
  %.not = icmp samesign ult i64 %5, 2
  br i1 %.not, label %6, label %16

6:                                                ; preds = %4
  %7 = add nsw i64 %2, -1
  store i64 %2, ptr %0, align 8, !tbaa !3
  %8 = getelementptr inbounds nuw i8, ptr %0, i64 48
  store ptr %3, ptr %8, align 8, !tbaa !10
  %9 = getelementptr inbounds nuw i8, ptr %0, i64 16
  store volatile i64 0, ptr %9, align 8, !tbaa !11
  %10 = getelementptr inbounds nuw i8, ptr %0, i64 8
  store volatile i64 0, ptr %10, align 8, !tbaa !12
  %11 = shl nsw i64 %2, 1
  %12 = add nsw i64 %11, -1
  %13 = getelementptr inbounds nuw i8, ptr %0, i64 24
  store i64 %12, ptr %13, align 8, !tbaa !13
  %14 = getelementptr inbounds nuw i8, ptr %0, i64 32
  store i64 %7, ptr %14, align 8, !tbaa !14
  %15 = getelementptr inbounds nuw i8, ptr %0, i64 40
  store i64 %1, ptr %15, align 8, !tbaa !15
  br label %16

16:                                               ; preds = %4, %6
  %.0 = phi i64 [ 0, %6 ], [ -1, %4 ]
  ret i64 %.0
}